; Function Attrs: mustprogress nounwind null_pointer_is_valid sspstrong uwtable
define void @_ZN9ProtoNodeD2Ev(ptr noundef readonly align 8 captures(none) dereferenceable_or_null(40) %0) unnamed_addr #6 align 2 personality ptr @__gxx_personality_v0 {
  %2 = getelementptr inbounds nuw i8, ptr %0, i64 8
  %3 = getelementptr inbounds nuw i8, ptr %0, i64 16
  %4 = load ptr, ptr %3, align 8
  %5 = getelementptr inbounds nuw i8, ptr %0, i64 24
  %6 = load i64, ptr %5, align 8
  %7 = getelementptr ptr, ptr %4, i64 %6
  %.idx.mask.i = and i64 %6, 2305843009213693951
  %.not4.i.i = icmp eq i64 %.idx.mask.i, 0
  br i1 %.not4.i.i, label %_Z10qDeleteAllI5QListIP9ProtoNodeEEvRKT_.exit, label %.lr.ph.i.i

.lr.ph.i.i:                                       ; preds = %1, %11
  %.sroa.0.05.i.i = phi ptr [ %12, %11 ], [ %4, %1 ]
  %8 = load ptr, ptr %.sroa.0.05.i.i, align 8
  %9 = icmp eq ptr %8, null
  br i1 %9, label %11, label %10

10:                                               ; preds = %.lr.ph.i.i
  tail call void @_ZN9ProtoNodeD1Ev(ptr noundef nonnull align 8 dereferenceable_or_null(40) %8) #21
  tail call void @_ZdlPvm(ptr noundef nonnull %8, i64 noundef 40) #20
  br label %11

11:                                               ; preds = %10, %.lr.ph.i.i
  %12 = getelementptr i8, ptr %.sroa.0.05.i.i, i64 8
  %.not.i.i = icmp eq ptr %12, %7
  br i1 %.not.i.i, label %_Z10qDeleteAllI5QListIP9ProtoNodeEEvRKT_.exit, label %.lr.ph.i.i, !llvm.loop !10

_Z10qDeleteAllI5QListIP9ProtoNodeEEvRKT_.exit:    ; preds = %11, %1
  %13 = load ptr, ptr %2, align 8
  %.not.i.i.i = icmp eq ptr %13, null
  br i1 %.not.i.i.i, label %_ZN5QListIP9ProtoNodeED2Ev.exit, label %_ZN17QArrayDataPointerIP9ProtoNodeE5derefEv.exit.i.i

_ZN17QArrayDataPointerIP9ProtoNodeE5derefEv.exit.i.i: ; preds = %_Z10qDeleteAllI5QListIP9ProtoNodeEEvRKT_.exit
  %14 = atomicrmw sub ptr %13, i32 1 seq_cst, align 4
  %.not.i.i1 = icmp eq i32 %14, 1
  br i1 %.not.i.i1, label %15, label %_ZN5QListIP9ProtoNodeED2Ev.exit

15:                                               ; preds = %_ZN17QArrayDataPointerIP9ProtoNodeE5derefEv.exit.i.i
  %16 = load ptr, ptr %2, align 8
  tail call void @_ZN10QArrayData10deallocateEPS_xx(ptr noundef %16, i64 noundef 8, i64 noundef 8) #21
  br label %_ZN5QListIP9ProtoNodeED2Ev.exit

_ZN5QListIP9ProtoNodeED2Ev.exit:                  ; preds = %_Z10qDeleteAllI5QListIP9ProtoNodeEEvRKT_.exit, %_ZN17QArrayDataPointerIP9ProtoNodeE5derefEv.exit.i.i, %15
  ret void
}